target datalayout = "e-m:e-p270:32:32-p271:32:32-p272:64:64-i64:64-i128:128-f80:128-n8:16:32:64-S128"
target triple = "x86_64-pc-linux-gnu"

%struct.Sbl_Man_t_ = type { ptr, ptr, i32, i32, i32, i32, i32, i32, i32, i32, i32, i32, i32, i32, i32, i32, i32, i32, i32, i32, i32, i32, ptr, ptr, ptr, ptr, ptr, ptr, ptr, ptr, ptr, ptr, ptr, ptr, ptr, ptr, ptr, ptr, ptr, ptr, ptr, ptr, ptr, ptr, ptr, ptr, ptr, ptr, ptr, ptr, ptr, i64, i64, i64, i64, i64, i64, i64, i64, i64, i64 }

@.str.21 = private unnamed_addr constant [20 x i8] c"Runtime breakdown:\0A\00", align 1
@.str.22 = private unnamed_addr constant [5 x i8] c"%s =\00", align 1
@.str.23 = private unnamed_addr constant [7 x i8] c"Win   \00", align 1
@.str.24 = private unnamed_addr constant [22 x i8] c"%9.2f sec (%6.2f %%)\0A\00", align 1
@.str.25 = private unnamed_addr constant [7 x i8] c"Cut   \00", align 1
@.str.26 = private unnamed_addr constant [7 x i8] c"Sat   \00", align 1
@.str.27 = private unnamed_addr constant [7 x i8] c" Sat  \00", align 1
@.str.28 = private unnamed_addr constant [7 x i8] c" Unsat\00", align 1
@.str.29 = private unnamed_addr constant [7 x i8] c" Undec\00", align 1
@.str.30 = private unnamed_addr constant [7 x i8] c"Timing\00", align 1
@.str.31 = private unnamed_addr constant [7 x i8] c"Other \00", align 1
@.str.32 = private unnamed_addr constant [7 x i8] c"ALL   \00", align 1

; Function Attrs: nounwind uwtable
define void @Sbl_ManPrintRuntime(ptr noundef %0) #0 {
  %2 = alloca ptr, align 8
  store ptr %0, ptr %2, align 8
  %3 = call i32 (ptr, ...) @printf(ptr noundef @.str.21)
  %4 = load ptr, ptr %2, align 8
  %5 = getelementptr inbounds %struct.Sbl_Man_t_, ptr %4, i32 0, i32 59
  %6 = load i64, ptr %5, align 8
  %7 = load ptr, ptr %2, align 8
  %8 = getelementptr inbounds %struct.Sbl_Man_t_, ptr %7, i32 0, i32 51
  %9 = load i64, ptr %8, align 8
  %10 = sub nsw i64 %6, %9
  %11 = load ptr, ptr %2, align 8
  %12 = getelementptr inbounds %struct.Sbl_Man_t_, ptr %11, i32 0, i32 52
  %13 = load i64, ptr %12, align 8
  %14 = sub nsw i64 %10, %13
  %15 = load ptr, ptr %2, align 8
  %16 = getelementptr inbounds %struct.Sbl_Man_t_, ptr %15, i32 0, i32 53
  %17 = load i64, ptr %16, align 8
  %18 = sub nsw i64 %14, %17
  %19 = load ptr, ptr %2, align 8
  %20 = getelementptr inbounds %struct.Sbl_Man_t_, ptr %19, i32 0, i32 57
  %21 = load i64, ptr %20, align 8
  %22 = sub nsw i64 %18, %21
  %23 = load ptr, ptr %2, align 8
  %24 = getelementptr inbounds %struct.Sbl_Man_t_, ptr %23, i32 0, i32 60
  store i64 %22, ptr %24, align 8
  call void (i32, ptr, ...) @Abc_Print(i32 noundef 1, ptr noundef @.str.22, ptr noundef @.str.23)
  %25 = load ptr, ptr %2, align 8
  %26 = getelementptr inbounds %struct.Sbl_Man_t_, ptr %25, i32 0, i32 51
  %27 = load i64, ptr %26, align 8
  %28 = sitofp i64 %27 to double
  %29 = fmul double 1.000000e+00, %28
  %30 = fdiv double %29, 1.000000e+06
  %31 = load ptr, ptr %2, align 8
  %32 = getelementptr inbounds %struct.Sbl_Man_t_, ptr %31, i32 0, i32 59
  %33 = load i64, ptr %32, align 8
  %34 = sitofp i64 %33 to double
  %35 = fcmp une double %34, 0.000000e+00
  br i1 %35, label %36, label %47

36:                                               ; preds = %1
  %37 = load ptr, ptr %2, align 8
  %38 = getelementptr inbounds %struct.Sbl_Man_t_, ptr %37, i32 0, i32 51
  %39 = load i64, ptr %38, align 8
  %40 = sitofp i64 %39 to double
  %41 = fmul double 1.000000e+02, %40
  %42 = load ptr, ptr %2, align 8
  %43 = getelementptr inbounds %struct.Sbl_Man_t_, ptr %42, i32 0, i32 59
  %44 = load i64, ptr %43, align 8
  %45 = sitofp i64 %44 to double
  %46 = fdiv double %41, %45
  br label %48

47:                                               ; preds = %1
  br label %48

48:                                               ; preds = %47, %36
  %49 = phi double [ %46, %36 ], [ 0.000000e+00, %47 ]
  call void (i32, ptr, ...) @Abc_Print(i32 noundef 1, ptr noundef @.str.24, double noundef %30, double noundef %49)
  call void (i32, ptr, ...) @Abc_Print(i32 noundef 1, ptr noundef @.str.22, ptr noundef @.str.25)
  %50 = load ptr, ptr %2, align 8
  %51 = getelementptr inbounds %struct.Sbl_Man_t_, ptr %50, i32 0, i32 52
  %52 = load i64, ptr %51, align 8
  %53 = sitofp i64 %52 to double
  %54 = fmul double 1.000000e+00, %53
  %55 = fdiv double %54, 1.000000e+06
  %56 = load ptr, ptr %2, align 8
  %57 = getelementptr inbounds %struct.Sbl_Man_t_, ptr %56, i32 0, i32 59
  %58 = load i64, ptr %57, align 8
  %59 = sitofp i64 %58 to double
  %60 = fcmp une double %59, 0.000000e+00
  br i1 %60, label %61, label %72

61:                                               ; preds = %48
  %62 = load ptr, ptr %2, align 8
  %63 = getelementptr inbounds %struct.Sbl_Man_t_, ptr %62, i32 0, i32 52
  %64 = load i64, ptr %63, align 8
  %65 = sitofp i64 %64 to double
  %66 = fmul double 1.000000e+02, %65
  %67 = load ptr, ptr %2, align 8
  %68 = getelementptr inbounds %struct.Sbl_Man_t_, ptr %67, i32 0, i32 59
  %69 = load i64, ptr %68, align 8
  %70 = sitofp i64 %69 to double
  %71 = fdiv double %66, %70
  br label %73

72:                                               ; preds = %48
  br label %73

73:                                               ; preds = %72, %61
  %74 = phi double [ %71, %61 ], [ 0.000000e+00, %72 ]
  call void (i32, ptr, ...) @Abc_Print(i32 noundef 1, ptr noundef @.str.24, double noundef %55, double noundef %74)
  call void (i32, ptr, ...) @Abc_Print(i32 noundef 1, ptr noundef @.str.22, ptr noundef @.str.26)
  %75 = load ptr, ptr %2, align 8
  %76 = getelementptr inbounds %struct.Sbl_Man_t_, ptr %75, i32 0, i32 53
  %77 = load i64, ptr %76, align 8
  %78 = sitofp i64 %77 to double
  %79 = fmul double 1.000000e+00, %78
  %80 = fdiv double %79, 1.000000e+06
  %81 = load ptr, ptr %2, align 8
  %82 = getelementptr inbounds %struct.Sbl_Man_t_, ptr %81, i32 0, i32 59
  %83 = load i64, ptr %82, align 8
  %84 = sitofp i64 %83 to double
  %85 = fcmp une double %84, 0.000000e+00
  br i1 %85, label %86, label %97

86:                                               ; preds = %73
  %87 = load ptr, ptr %2, align 8
  %88 = getelementptr inbounds %struct.Sbl_Man_t_, ptr %87, i32 0, i32 53
  %89 = load i64, ptr %88, align 8
  %90 = sitofp i64 %89 to double
  %91 = fmul double 1.000000e+02, %90
  %92 = load ptr, ptr %2, align 8
  %93 = getelementptr inbounds %struct.Sbl_Man_t_, ptr %92, i32 0, i32 59
  %94 = load i64, ptr %93, align 8
  %95 = sitofp i64 %94 to double
  %96 = fdiv double %91, %95
  br label %98

97:                                               ; preds = %73
  br label %98

98:                                               ; preds = %97, %86
  %99 = phi double [ %96, %86 ], [ 0.000000e+00, %97 ]
  call void (i32, ptr, ...) @Abc_Print(i32 noundef 1, ptr noundef @.str.24, double noundef %80, double noundef %99)
  call void (i32, ptr, ...) @Abc_Print(i32 noundef 1, ptr noundef @.str.22, ptr noundef @.str.27)
  %100 = load ptr, ptr %2, align 8
  %101 = getelementptr inbounds %struct.Sbl_Man_t_, ptr %100, i32 0, i32 54
  %102 = load i64, ptr %101, align 8
  %103 = sitofp i64 %102 to double
  %104 = fmul double 1.000000e+00, %103
  %105 = fdiv double %104, 1.000000e+06
  %106 = load ptr, ptr %2, align 8
  %107 = getelementptr inbounds %struct.Sbl_Man_t_, ptr %106, i32 0, i32 59
  %108 = load i64, ptr %107, align 8
  %109 = sitofp i64 %108 to double
  %110 = fcmp une double %109, 0.000000e+00
  br i1 %110, label %111, label %122

111:                                              ; preds = %98
  %112 = load ptr, ptr %2, align 8
  %113 = getelementptr inbounds %struct.Sbl_Man_t_, ptr %112, i32 0, i32 54
  %114 = load i64, ptr %113, align 8
  %115 = sitofp i64 %114 to double
  %116 = fmul double 1.000000e+02, %115
  %117 = load ptr, ptr %2, align 8
  %118 = getelementptr inbounds %struct.Sbl_Man_t_, ptr %117, i32 0, i32 59
  %119 = load i64, ptr %118, align 8
  %120 = sitofp i64 %119 to double
  %121 = fdiv double %116, %120
  br label %123

122:                                              ; preds = %98
  br label %123

123:                                              ; preds = %122, %111
  %124 = phi double [ %121, %111 ], [ 0.000000e+00, %122 ]
  call void (i32, ptr, ...) @Abc_Print(i32 noundef 1, ptr noundef @.str.24, double noundef %105, double noundef %124)
  call void (i32, ptr, ...) @Abc_Print(i32 noundef 1, ptr noundef @.str.22, ptr noundef @.str.28)
  %125 = load ptr, ptr %2, align 8
  %126 = getelementptr inbounds %struct.Sbl_Man_t_, ptr %125, i32 0, i32 55
  %127 = load i64, ptr %126, align 8
  %128 = sitofp i64 %127 to double
  %129 = fmul double 1.000000e+00, %128
  %130 = fdiv double %129, 1.000000e+06
  %131 = load ptr, ptr %2, align 8
  %132 = getelementptr inbounds %struct.Sbl_Man_t_, ptr %131, i32 0, i32 59
  %133 = load i64, ptr %132, align 8
  %134 = sitofp i64 %133 to double
  %135 = fcmp une double %134, 0.000000e+00
  br i1 %135, label %136, label %147

136:                                              ; preds = %123
  %137 = load ptr, ptr %2, align 8
  %138 = getelementptr inbounds %struct.Sbl_Man_t_, ptr %137, i32 0, i32 55
  %139 = load i64, ptr %138, align 8
  %140 = sitofp i64 %139 to double
  %141 = fmul double 1.000000e+02, %140
  %142 = load ptr, ptr %2, align 8
  %143 = getelementptr inbounds %struct.Sbl_Man_t_, ptr %142, i32 0, i32 59
  %144 = load i64, ptr %143, align 8
  %145 = sitofp i64 %144 to double
  %146 = fdiv double %141, %145
  br label %148

147:                                              ; preds = %123
  br label %148

148:                                              ; preds = %147, %136
  %149 = phi double [ %146, %136 ], [ 0.000000e+00, %147 ]
  call void (i32, ptr, ...) @Abc_Print(i32 noundef 1, ptr noundef @.str.24, double noundef %130, double noundef %149)
  call void (i32, ptr, ...) @Abc_Print(i32 noundef 1, ptr noundef @.str.22, ptr noundef @.str.29)
  %150 = load ptr, ptr %2, align 8
  %151 = getelementptr inbounds %struct.Sbl_Man_t_, ptr %150, i32 0, i32 56
  %152 = load i64, ptr %151, align 8
  %153 = sitofp i64 %152 to double
  %154 = fmul double 1.000000e+00, %153
  %155 = fdiv double %154, 1.000000e+06
  %156 = load ptr, ptr %2, align 8
  %157 = getelementptr inbounds %struct.Sbl_Man_t_, ptr %156, i32 0, i32 59
  %158 = load i64, ptr %157, align 8
  %159 = sitofp i64 %158 to double
  %160 = fcmp une double %159, 0.000000e+00
  br i1 %160, label %161, label %172

161:                                              ; preds = %148
  %162 = load ptr, ptr %2, align 8
  %163 = getelementptr inbounds %struct.Sbl_Man_t_, ptr %162, i32 0, i32 56
  %164 = load i64, ptr %163, align 8
  %165 = sitofp i64 %164 to double
  %166 = fmul double 1.000000e+02, %165
  %167 = load ptr, ptr %2, align 8
  %168 = getelementptr inbounds %struct.Sbl_Man_t_, ptr %167, i32 0, i32 59
  %169 = load i64, ptr %168, align 8
  %170 = sitofp i64 %169 to double
  %171 = fdiv double %166, %170
  br label %173

172:                                              ; preds = %148
  br label %173

173:                                              ; preds = %172, %161
  %174 = phi double [ %171, %161 ], [ 0.000000e+00, %172 ]
  call void (i32, ptr, ...) @Abc_Print(i32 noundef 1, ptr noundef @.str.24, double noundef %155, double noundef %174)
  call void (i32, ptr, ...) @Abc_Print(i32 noundef 1, ptr noundef @.str.22, ptr noundef @.str.30)
  %175 = load ptr, ptr %2, align 8
  %176 = getelementptr inbounds %struct.Sbl_Man_t_, ptr %175, i32 0, i32 57
  %177 = load i64, ptr %176, align 8
  %178 = sitofp i64 %177 to double
  %179 = fmul double 1.000000e+00, %178
  %180 = fdiv double %179, 1.000000e+06
  %181 = load ptr, ptr %2, align 8
  %182 = getelementptr inbounds %struct.Sbl_Man_t_, ptr %181, i32 0, i32 59
  %183 = load i64, ptr %182, align 8
  %184 = sitofp i64 %183 to double
  %185 = fcmp une double %184, 0.000000e+00
  br i1 %185, label %186, label %197

186:                                              ; preds = %173
  %187 = load ptr, ptr %2, align 8
  %188 = getelementptr inbounds %struct.Sbl_Man_t_, ptr %187, i32 0, i32 57
  %189 = load i64, ptr %188, align 8
  %190 = sitofp i64 %189 to double
  %191 = fmul double 1.000000e+02, %190
  %192 = load ptr, ptr %2, align 8
  %193 = getelementptr inbounds %struct.Sbl_Man_t_, ptr %192, i32 0, i32 59
  %194 = load i64, ptr %193, align 8
  %195 = sitofp i64 %194 to double
  %196 = fdiv double %191, %195
  br label %198

197:                                              ; preds = %173
  br label %198

198:                                              ; preds = %197, %186
  %199 = phi double [ %196, %186 ], [ 0.000000e+00, %197 ]
  call void (i32, ptr, ...) @Abc_Print(i32 noundef 1, ptr noundef @.str.24, double noundef %180, double noundef %199)
  call void (i32, ptr, ...) @Abc_Print(i32 noundef 1, ptr noundef @.str.22, ptr noundef @.str.31)
  %200 = load ptr, ptr %2, align 8
  %201 = getelementptr inbounds %struct.Sbl_Man_t_, ptr %200, i32 0, i32 60
  %202 = load i64, ptr %201, align 8
  %203 = sitofp i64 %202 to double
  %204 = fmul double 1.000000e+00, %203
  %205 = fdiv double %204, 1.000000e+06
  %206 = load ptr, ptr %2, align 8
  %207 = getelementptr inbounds %struct.Sbl_Man_t_, ptr %206, i32 0, i32 59
  %208 = load i64, ptr %207, align 8
  %209 = sitofp i64 %208 to double
  %210 = fcmp une double %209, 0.000000e+00
  br i1 %210, label %211, label %222

211:                                              ; preds = %198
  %212 = load ptr, ptr %2, align 8
  %213 = getelementptr inbounds %struct.Sbl_Man_t_, ptr %212, i32 0, i32 60
  %214 = load i64, ptr %213, align 8
  %215 = sitofp i64 %214 to double
  %216 = fmul double 1.000000e+02, %215
  %217 = load ptr, ptr %2, align 8
  %218 = getelementptr inbounds %struct.Sbl_Man_t_, ptr %217, i32 0, i32 59
  %219 = load i64, ptr %218, align 8
  %220 = sitofp i64 %219 to double
  %221 = fdiv double %216, %220
  br label %223

222:                                              ; preds = %198
  br label %223

223:                                              ; preds = %222, %211
  %224 = phi double [ %221, %211 ], [ 0.000000e+00, %222 ]
  call void (i32, ptr, ...) @Abc_Print(i32 noundef 1, ptr noundef @.str.24, double noundef %205, double noundef %224)
  call void (i32, ptr, ...) @Abc_Print(i32 noundef 1, ptr noundef @.str.22, ptr noundef @.str.32)
  %225 = load ptr, ptr %2, align 8
  %226 = getelementptr inbounds %struct.Sbl_Man_t_, ptr %225, i32 0, i32 59
  %227 = load i64, ptr %226, align 8
  %228 = sitofp i64 %227 to double
  %229 = fmul double 1.000000e+00, %228
  %230 = fdiv double %229, 1.000000e+06
  %231 = load ptr, ptr %2, align 8
  %232 = getelementptr inbounds %struct.Sbl_Man_t_, ptr %231, i32 0, i32 59
  %233 = load i64, ptr %232, align 8
  %234 = sitofp i64 %233 to double
  %235 = fcmp une double %234, 0.000000e+00
  br i1 %235, label %236, label %247

236:                                              ; preds = %223
  %237 = load ptr, ptr %2, align 8
  %238 = getelementptr inbounds %struct.Sbl_Man_t_, ptr %237, i32 0, i32 59
  %239 = load i64, ptr %238, align 8
  %240 = sitofp i64 %239 to double
  %241 = fmul double 1.000000e+02, %240
  %242 = load ptr, ptr %2, align 8
  %243 = getelementptr inbounds %struct.Sbl_Man_t_, ptr %242, i32 0, i32 59
  %244 = load i64, ptr %243, align 8
  %245 = sitofp i64 %244 to double
  %246 = fdiv double %241, %245
  br label %248

247:                                              ; preds = %223
  br label %248

248:                                              ; preds = %247, %236
  %249 = phi double [ %246, %236 ], [ 0.000000e+00, %247 ]
  call void (i32, ptr, ...) @Abc_Print(i32 noundef 1, ptr noundef @.str.24, double noundef %230, double noundef %249)
  ret void
}