; Function Attrs: nounwind uwtable
define void @Sbl_ManPrintRuntime(ptr noundef captures(none) initializes((400, 408)) %0) local_unnamed_addr #0 {
  %puts = tail call i32 @puts(ptr nonnull dereferenceable(1) @str.1)
  %2 = getelementptr inbounds nuw i8, ptr %0, i64 392
  %3 = load i64, ptr %2, align 8
  %4 = getelementptr inbounds nuw i8, ptr %0, i64 328
  %5 = load i64, ptr %4, align 8
  %6 = getelementptr inbounds nuw i8, ptr %0, i64 336
  %7 = load i64, ptr %6, align 8
  %8 = getelementptr inbounds nuw i8, ptr %0, i64 344
  %9 = load i64, ptr %8, align 8
  %10 = getelementptr inbounds nuw i8, ptr %0, i64 376
  %11 = load i64, ptr %10, align 8
  %12 = add i64 %5, %7
  %13 = add i64 %12, %9
  %14 = add i64 %13, %11
  %15 = sub i64 %3, %14
  %16 = getelementptr inbounds nuw i8, ptr %0, i64 400
  store i64 %15, ptr %16, align 8
  tail call void (i32, ptr, ...) @Abc_Print(i32 poison, ptr noundef nonnull @.str.22, ptr noundef nonnull @.str.23)
  %17 = load i64, ptr %4, align 8
  %18 = sitofp i64 %17 to double
  %19 = fdiv double %18, 1.000000e+06
  %20 = load i64, ptr %2, align 8
  %.not = icmp eq i64 %20, 0
  %21 = sitofp i64 %20 to double
  %22 = fmul double %18, 1.000000e+02
  %23 = fdiv double %22, %21
  %24 = select i1 %.not, double 0.000000e+00, double %23
  tail call void (i32, ptr, ...) @Abc_Print(i32 poison, ptr noundef nonnull @.str.24, double noundef %19, double noundef %24)
  tail call void (i32, ptr, ...) @Abc_Print(i32 poison, ptr noundef nonnull @.str.22, ptr noundef nonnull @.str.25)
  %25 = load i64, ptr %6, align 8
  %26 = sitofp i64 %25 to double
  %27 = fdiv double %26, 1.000000e+06
  %28 = load i64, ptr %2, align 8
  %.not50 = icmp eq i64 %28, 0
  %29 = sitofp i64 %28 to double
  %30 = fmul double %26, 1.000000e+02
  %31 = fdiv double %30, %29
  %32 = select i1 %.not50, double 0.000000e+00, double %31
  tail call void (i32, ptr, ...) @Abc_Print(i32 poison, ptr noundef nonnull @.str.24, double noundef %27, double noundef %32)
  tail call void (i32, ptr, ...) @Abc_Print(i32 poison, ptr noundef nonnull @.str.22, ptr noundef nonnull @.str.26)
  %33 = load i64, ptr %8, align 8
  %34 = sitofp i64 %33 to double
  %35 = fdiv double %34, 1.000000e+06
  %36 = load i64, ptr %2, align 8
  %.not51 = icmp eq i64 %36, 0
  %37 = sitofp i64 %36 to double
  %38 = fmul double %34, 1.000000e+02
  %39 = fdiv double %38, %37
  %40 = select i1 %.not51, double 0.000000e+00, double %39
  tail call void (i32, ptr, ...) @Abc_Print(i32 poison, ptr noundef nonnull @.str.24, double noundef %35, double noundef %40)
  tail call void (i32, ptr, ...) @Abc_Print(i32 poison, ptr noundef nonnull @.str.22, ptr noundef nonnull @.str.27)
  %41 = getelementptr inbounds nuw i8, ptr %0, i64 352
  %42 = load i64, ptr %41, align 8
  %43 = sitofp i64 %42 to double
  %44 = fdiv double %43, 1.000000e+06
  %45 = load i64, ptr %2, align 8
  %.not52 = icmp eq i64 %45, 0
  %46 = sitofp i64 %45 to double
  %47 = fmul double %43, 1.000000e+02
  %48 = fdiv double %47, %46
  %49 = select i1 %.not52, double 0.000000e+00, double %48
  tail call void (i32, ptr, ...) @Abc_Print(i32 poison, ptr noundef nonnull @.str.24, double noundef %44, double noundef %49)
  tail call void (i32, ptr, ...) @Abc_Print(i32 poison, ptr noundef nonnull @.str.22, ptr noundef nonnull @.str.28)
  %50 = getelementptr inbounds nuw i8, ptr %0, i64 360
  %51 = load i64, ptr %50, align 8
  %52 = sitofp i64 %51 to double
  %53 = fdiv double %52, 1.000000e+06
  %54 = load i64, ptr %2, align 8
  %.not53 = icmp eq i64 %54, 0
  %55 = sitofp i64 %54 to double
  %56 = fmul double %52, 1.000000e+02
  %57 = fdiv double %56, %55
  %58 = select i1 %.not53, double 0.000000e+00, double %57
  tail call void (i32, ptr, ...) @Abc_Print(i32 poison, ptr noundef nonnull @.str.24, double noundef %53, double noundef %58)
  tail call void (i32, ptr, ...) @Abc_Print(i32 poison, ptr noundef nonnull @.str.22, ptr noundef nonnull @.str.29)
  %59 = getelementptr inbounds nuw i8, ptr %0, i64 368
  %60 = load i64, ptr %59, align 8
  %61 = sitofp i64 %60 to double
  %62 = fdiv double %61, 1.000000e+06
  %63 = load i64, ptr %2, align 8
  %.not54 = icmp eq i64 %63, 0
  %64 = sitofp i64 %63 to double
  %65 = fmul double %61, 1.000000e+02
  %66 = fdiv double %65, %64
  %67 = select i1 %.not54, double 0.000000e+00, double %66
  tail call void (i32, ptr, ...) @Abc_Print(i32 poison, ptr noundef nonnull @.str.24, double noundef %62, double noundef %67)
  tail call void (i32, ptr, ...) @Abc_Print(i32 poison, ptr noundef nonnull @.str.22, ptr noundef nonnull @.str.30)
  %68 = load i64, ptr %10, align 8
  %69 = sitofp i64 %68 to double
  %70 = fdiv double %69, 1.000000e+06
  %71 = load i64, ptr %2, align 8
  %.not55 = icmp eq i64 %71, 0
  %72 = sitofp i64 %71 to double
  %73 = fmul double %69, 1.000000e+02
  %74 = fdiv double %73, %72
  %75 = select i1 %.not55, double 0.000000e+00, double %74
  tail call void (i32, ptr, ...) @Abc_Print(i32 poison, ptr noundef nonnull @.str.24, double noundef %70, double noundef %75)
  tail call void (i32, ptr, ...) @Abc_Print(i32 poison, ptr noundef nonnull @.str.22, ptr noundef nonnull @.str.31)
  %76 = load i64, ptr %16, align 8
  %77 = sitofp i64 %76 to double
  %78 = fdiv double %77, 1.000000e+06
  %79 = load i64, ptr %2, align 8
  %.not56 = icmp eq i64 %79, 0
  %80 = sitofp i64 %79 to double
  %81 = fmul double %77, 1.000000e+02
  %82 = fdiv double %81, %80
  %83 = select i1 %.not56, double 0.000000e+00, double %82
  tail call void (i32, ptr, ...) @Abc_Print(i32 poison, ptr noundef nonnull @.str.24, double noundef %78, double noundef %83)
  tail call void (i32, ptr, ...) @Abc_Print(i32 poison, ptr noundef nonnull @.str.22, ptr noundef nonnull @.str.32)
  %84 = load i64, ptr %2, align 8
  %85 = sitofp i64 %84 to double
  %.not57 = icmp eq i64 %84, 0
  %86 = fmul double %85, 1.000000e+02
  %87 = fdiv double %86, %85
  %88 = select i1 %.not57, double 0.000000e+00, double %87
  %89 = fdiv double %85, 1.000000e+06
  tail call void (i32, ptr, ...) @Abc_Print(i32 poison, ptr noundef nonnull @.str.24, double noundef %89, double noundef %88)
  ret void
}